; Function Attrs: mustprogress uwtable
define hidden noundef ptr @_ZN12bv2real_util6mk_sbvERK8rational(ptr noundef nonnull align 8 dereferenceable(272) %this, ptr noundef nonnull align 8 dereferenceable(32) %n) local_unnamed_addr #3 align 2 personality ptr @__gxx_personality_v0 {
entry:
  %m = alloca %class.rational, align 8
  %0 = load i32, ptr %n, align 8
  %cmp.i.i.i.i = icmp slt i32 %0, 0
  br i1 %cmp.i.i.i.i, label %if.then, label %if.else

if.then:                                          ; preds = %entry
  call void @_Z3absRK8rational(ptr nonnull sret(%class.rational) align 8 %m, ptr noundef nonnull align 8 dereferenceable(32) %n)
  %call2 = invoke noundef i32 @_ZNK8rational12get_num_bitsEv(ptr noundef nonnull align 8 dereferenceable(32) %m)
          to label %invoke.cont unwind label %lpad

invoke.cont:                                      ; preds = %if.then
  %m_bv = getelementptr inbounds i8, ptr %this, i64 24
  %add = add i32 %call2, 1
  %call5 = invoke noundef ptr @_ZNK7bv_util10mk_numeralERK8rationalj(ptr noundef nonnull align 8 dereferenceable(24) %m_bv, ptr noundef nonnull align 8 dereferenceable(32) %m, i32 noundef %add)
          to label %invoke.cont4 unwind label %lpad

invoke.cont4:                                     ; preds = %invoke.cont
  %m_manager.i = getelementptr inbounds i8, ptr %this, i64 32
  %1 = load ptr, ptr %m_manager.i, align 8
  %2 = load i32, ptr %m_bv, align 8
  %call2.i4 = invoke noundef ptr @_ZN11ast_manager6mk_appEiiP4expr(ptr noundef nonnull align 8 dereferenceable(976) %1, i32 noundef %2, i32 noundef 3, ptr noundef %call5)
          to label %invoke.cont6 unwind label %lpad

invoke.cont6:                                     ; preds = %invoke.cont4
  %3 = load ptr, ptr @_ZN8rational13g_mpq_managerE, align 8
  invoke void @_ZN11mpz_managerILb1EE3delEPS0_R3mpz(ptr noundef %3, ptr noundef nonnull align 8 dereferenceable(16) %m)
          to label %.noexc.i unwind label %terminate.lpad.i

.noexc.i:                                         ; preds = %invoke.cont6
  %m_den.i.i = getelementptr inbounds i8, ptr %m, i64 16
  invoke void @_ZN11mpz_managerILb1EE3delEPS0_R3mpz(ptr noundef %3, ptr noundef nonnull align 8 dereferenceable(16) %m_den.i.i)
          to label %return unwind label %terminate.lpad.i

terminate.lpad.i:                                 ; preds = %.noexc.i, %invoke.cont6
  %4 = landingpad { ptr, i32 }
          catch ptr null
  %5 = extractvalue { ptr, i32 } %4, 0
  call void @__clang_call_terminate(ptr %5) #18
  unreachable

lpad:                                             ; preds = %invoke.cont4, %invoke.cont, %if.then
  %6 = landingpad { ptr, i32 }
          cleanup
  call void @_ZN8rationalD2Ev(ptr noundef nonnull align 8 dereferenceable(32) %m) #19
  resume { ptr, i32 } %6

if.else:                                          ; preds = %entry
  %call9 = tail call noundef i32 @_ZNK8rational12get_num_bitsEv(ptr noundef nonnull align 8 dereferenceable(32) %n)
  %m_bv10 = getelementptr inbounds i8, ptr %this, i64 24
  %add11 = add i32 %call9, 1
  %call12 = tail call noundef ptr @_ZNK7bv_util10mk_numeralERK8rationalj(ptr noundef nonnull align 8 dereferenceable(24) %m_bv10, ptr noundef nonnull align 8 dereferenceable(32) %n, i32 noundef %add11)
  br label %return

return:                                           ; preds = %.noexc.i, %if.else
  %retval.0 = phi ptr [ %call12, %if.else ], [ %call2.i4, %.noexc.i ]
  ret ptr %retval.0
}